target datalayout = "e-m:e-p270:32:32-p271:32:32-p272:64:64-i64:64-i128:128-f80:128-n8:16:32:64-S128"
target triple = "x86_64-pc-linux-gnu"

%"class.Imf_3_4::MultiPartOutputFile" = type { %"class.Imf_3_4::GenericOutputFile", ptr }
%"class.Imf_3_4::GenericOutputFile" = type { ptr }
%"struct.Imf_3_4::MultiPartOutputFile::Data" = type { %"struct.Imf_3_4::OutputStreamMutex", %"class.std::vector", i8, i32, %"class.std::map", %"class.std::vector.6" }
%"struct.Imf_3_4::OutputStreamMutex" = type { %"class.std::mutex", ptr, i64 }
%"class.std::mutex" = type { %"class.std::__mutex_base" }
%"class.std::__mutex_base" = type { %union.pthread_mutex_t }
%union.pthread_mutex_t = type { %struct.__pthread_mutex_s }
%struct.__pthread_mutex_s = type { i32, i32, i32, i32, i32, i16, i16, %struct.__pthread_internal_list }
%struct.__pthread_internal_list = type { ptr, ptr }
%"class.std::vector" = type { %"struct.std::_Vector_base" }
%"struct.std::_Vector_base" = type { %"struct.std::_Vector_base<Imf_3_4::OutputPartData *, std::allocator<Imf_3_4::OutputPartData *>>::_Vector_impl" }
%"struct.std::_Vector_base<Imf_3_4::OutputPartData *, std::allocator<Imf_3_4::OutputPartData *>>::_Vector_impl" = type { %"struct.std::_Vector_base<Imf_3_4::OutputPartData *, std::allocator<Imf_3_4::OutputPartData *>>::_Vector_impl_data" }
%"struct.std::_Vector_base<Imf_3_4::OutputPartData *, std::allocator<Imf_3_4::OutputPartData *>>::_Vector_impl_data" = type { ptr, ptr, ptr }
%"class.std::map" = type { %"class.std::_Rb_tree" }
%"class.std::_Rb_tree" = type { %"struct.std::_Rb_tree<int, std::pair<const int, Imf_3_4::GenericOutputFile *>, std::_Select1st<std::pair<const int, Imf_3_4::GenericOutputFile *>>, std::less<int>>::_Rb_tree_impl" }
%"struct.std::_Rb_tree<int, std::pair<const int, Imf_3_4::GenericOutputFile *>, std::_Select1st<std::pair<const int, Imf_3_4::GenericOutputFile *>>, std::less<int>>::_Rb_tree_impl" = type { [8 x i8], %"struct.std::_Rb_tree_header" }
%"struct.std::_Rb_tree_header" = type { %"struct.std::_Rb_tree_node_base", i64 }
%"struct.std::_Rb_tree_node_base" = type { i32, ptr, ptr, ptr }
%"class.std::vector.6" = type { %"struct.std::_Vector_base.7" }
%"struct.std::_Vector_base.7" = type { %"struct.std::_Vector_base<Imf_3_4::Header, std::allocator<Imf_3_4::Header>>::_Vector_impl" }
%"struct.std::_Vector_base<Imf_3_4::Header, std::allocator<Imf_3_4::Header>>::_Vector_impl" = type { %"struct.std::_Vector_base<Imf_3_4::Header, std::allocator<Imf_3_4::Header>>::_Vector_impl_data" }
%"struct.std::_Vector_base<Imf_3_4::Header, std::allocator<Imf_3_4::Header>>::_Vector_impl_data" = type { ptr, ptr, ptr }

; Function Attrs: mustprogress nounwind uwtable
define linkonce_odr hidden noundef i64 @_ZNKSt6vectorIN7Imf_3_46HeaderESaIS1_EE4sizeEv(ptr noundef nonnull align 8 dereferenceable(24) %0) #5 comdat align 2 {
  %2 = alloca ptr, align 8
  store ptr %0, ptr %2, align 8, !tbaa !26
  %3 = load ptr, ptr %2, align 8
  %4 = getelementptr inbounds nuw %"struct.std::_Vector_base.7", ptr %3, i32 0, i32 0
  %5 = getelementptr inbounds nuw %"struct.std::_Vector_base<Imf_3_4::Header, std::allocator<Imf_3_4::Header>>::_Vector_impl_data", ptr %4, i32 0, i32 1
  %6 = load ptr, ptr %5, align 8, !tbaa !28
  %7 = getelementptr inbounds nuw %"struct.std::_Vector_base.7", ptr %3, i32 0, i32 0
  %8 = getelementptr inbounds nuw %"struct.std::_Vector_base<Imf_3_4::Header, std::allocator<Imf_3_4::Header>>::_Vector_impl_data", ptr %7, i32 0, i32 0
  %9 = load ptr, ptr %8, align 8, !tbaa !31
  %10 = ptrtoint ptr %6 to i64
  %11 = ptrtoint ptr %9 to i64
  %12 = sub i64 %10, %11
  %13 = sdiv exact i64 %12, 56
  ret i64 %13
}

; Function Attrs: mustprogress nounwind uwtable
define noundef i32 @_ZNK7Imf_3_419MultiPartOutputFile5partsEv(ptr noundef nonnull align 8 dereferenceable(16) %0) #5 align 2 {
  %2 = alloca ptr, align 8
  store ptr %0, ptr %2, align 8, !tbaa !12
  %3 = load ptr, ptr %2, align 8
  %4 = getelementptr inbounds nuw %"class.Imf_3_4::MultiPartOutputFile", ptr %3, i32 0, i32 1
  %5 = load ptr, ptr %4, align 8, !tbaa !16
  %6 = getelementptr inbounds nuw %"struct.Imf_3_4::MultiPartOutputFile::Data", ptr %5, i32 0, i32 5
  %7 = call noundef i64 @_ZNKSt6vectorIN7Imf_3_46HeaderESaIS1_EE4sizeEv(ptr noundef nonnull align 8 dereferenceable(24) %6) #3
  %8 = trunc i64 %7 to i32
  ret i32 %8
}