; Function Attrs: mustprogress nofree norecurse nosync nounwind willreturn memory(read, inaccessiblemem: none) uwtable
define noundef i32 @_ZNK7Imf_3_419MultiPartOutputFile5partsEv(ptr noundef nonnull readonly align 8 captures(none) dereferenceable(16) %0) local_unnamed_addr #13 align 2 {
  %2 = getelementptr inbounds nuw i8, ptr %0, i64 8
  %3 = load ptr, ptr %2, align 8, !tbaa !17
  %4 = getelementptr inbounds nuw i8, ptr %3, i64 136
  %5 = getelementptr inbounds nuw i8, ptr %3, i64 144
  %6 = load ptr, ptr %5, align 8, !tbaa !21
  %7 = load ptr, ptr %4, align 8, !tbaa !24
  %8 = ptrtoint ptr %6 to i64
  %9 = ptrtoint ptr %7 to i64
  %10 = sub i64 %8, %9
  %11 = sdiv exact i64 %10, 56
  %12 = trunc i64 %11 to i32
  ret i32 %12
}